(ideluge.core.torrentmanager
TorrentManagerState
p1
(dp2
S'torrents'
p3
(lp4
(ideluge.core.torrentmanager
TorrentState
p5
(dp6
S'max_download_speed'
p7
F-1
sS'move_completed_path'
p8
S'/Users/huy/Downloads'
p9
sS'paused'
p10
I00
sS'max_upload_slots'
p11
I-1
sS'prioritize_first_last'
p12
I00
sS'max_connections'
p13
I-1
sS'compact'
p14
I00
sS'queue'
p15
I-1
sS'file_priorities'
p16
(lp17
I1
aI1
asS'filename'
p18
S'4e43703f7cb99cf6b7f3b0750a538fa3048f24f1'
p19
sS'max_upload_speed'
p20
F-1
sS'save_path'
p21
S'/Users/huy/Downloads'
p22
sS'time_added'
p23
F1628334165.4414001
sS'total_uploaded'
p24
L671002913L
sS'torrent_id'
p25
g19
sS'auto_managed'
p26
I01
sS'stop_at_ratio'
p27
I00
sS'move_completed'
p28
I00
sS'trackers'
p29
(lp30
(dp31
S'send_stats'
p32
I01
sS'fails'
p33
I0
sS'verified'
p34
I00
sS'min_announce'
p35
NsS'url'
p36
S'udp://tracker.yify-torrents.com/announce'
p37
sS'fail_limit'
p38
I0
sS'next_announce'
p39
NsS'complete_sent'
p40
I00
sS'source'
p41
I4
sS'start_sent'
p42
I00
sS'tier'
p43
I0
sS'updating'
p44
I00
sa(dp45
S'send_stats'
p46
I01
sS'fails'
p47
I0
sS'verified'
p48
I00
sg35
NsS'url'
p49
S'udp://open.demonii.com:1337'
p50
sS'fail_limit'
p51
I0
sg39
NsS'complete_sent'
p52
I00
sS'source'
p53
I4
sS'start_sent'
p54
I00
sS'tier'
p55
I0
sS'updating'
p56
I00
sa(dp57
S'send_stats'
p58
I01
sS'fails'
p59
I0
sS'verified'
p60
I00
sg35
NsS'url'
p61
S'udp://exodus.desync.com:6969'
p62
sS'fail_limit'
p63
I0
sg39
NsS'complete_sent'
p64
I00
sS'source'
p65
I4
sS'start_sent'
p66
I00
sS'tier'
p67
I0
sS'updating'
p68
I00
sa(dp69
S'send_stats'
p70
I01
sS'fails'
p71
I0
sS'verified'
p72
I00
sg35
NsS'url'
p73
S'udp://tracker.istole.it:80'
p74
sS'fail_limit'
p75
I0
sg39
NsS'complete_sent'
p76
I00
sS'source'
p77
I4
sS'start_sent'
p78
I00
sS'tier'
p79
I0
sS'updating'
p80
I00
sa(dp81
S'send_stats'
p82
I01
sS'fails'
p83
I0
sS'verified'
p84
I00
sg35
NsS'url'
p85
S'udp://tracker.publicbt.com:80'
p86
sS'fail_limit'
p87
I0
sg39
NsS'complete_sent'
p88
I00
sS'source'
p89
I4
sS'start_sent'
p90
I00
sS'tier'
p91
I0
sS'updating'
p92
I00
sa(dp93
S'send_stats'
p94
I01
sS'fails'
p95
I0
sS'verified'
p96
I00
sg35
NsS'url'
p97
S'udp://tracker.openbittorrent.com:80'
p98
sS'fail_limit'
p99
I0
sg39
NsS'complete_sent'
p100
I00
sS'source'
p101
I4
sS'start_sent'
p102
I00
sS'tier'
p103
I0
sS'updating'
p104
I00
sa(dp105
S'send_stats'
p106
I01
sS'fails'
p107
I0
sS'verified'
p108
I00
sg35
NsS'url'
p109
S'udp://tracker.leechers-paradise.org:6969'
p110
sS'fail_limit'
p111
I0
sg39
NsS'complete_sent'
p112
I00
sS'source'
p113
I4
sS'start_sent'
p114
I00
sS'tier'
p115
I0
sS'updating'
p116
I00
sa(dp117
S'send_stats'
p118
I01
sS'fails'
p119
I0
sS'verified'
p120
I00
sg35
NsS'url'
p121
S'udp://9.rarbg.com:2710'
p122
sS'fail_limit'
p123
I0
sg39
NsS'complete_sent'
p124
I00
sS'source'
p125
I4
sS'start_sent'
p126
I00
sS'tier'
p127
I0
sS'updating'
p128
I00
sa(dp129
S'send_stats'
p130
I01
sS'fails'
p131
I0
sS'verified'
p132
I00
sg35
NsS'url'
p133
S'udp://p4p.arenabg.ch:1337'
p134
sS'fail_limit'
p135
I0
sg39
NsS'complete_sent'
p136
I00
sS'source'
p137
I4
sS'start_sent'
p138
I00
sS'tier'
p139
I0
sS'updating'
p140
I00
sa(dp141
S'send_stats'
p142
I01
sS'fails'
p143
I0
sS'verified'
p144
I00
sg35
NsS'url'
p145
S'udp://p4p.arenabg.com:1337'
p146
sS'fail_limit'
p147
I0
sg39
NsS'complete_sent'
p148
I00
sS'source'
p149
I4
sS'start_sent'
p150
I00
sS'tier'
p151
I0
sS'updating'
p152
I00
sa(dp153
S'send_stats'
p154
I01
sS'fails'
p155
I0
sS'verified'
p156
I00
sg35
NsS'url'
p157
S'udp://tracker.coppersurfer.tk:6969'
p158
sS'fail_limit'
p159
I0
sg39
NsS'complete_sent'
p160
I00
sS'source'
p161
I4
sS'start_sent'
p162
I00
sS'tier'
p163
I0
sS'updating'
p164
I00
sa(dp165
S'send_stats'
p166
I01
sS'fails'
p167
I0
sS'verified'
p168
I00
sg35
NsS'url'
p169
S'udp://tracker.zer0day.to:1337/announce'
p170
sS'fail_limit'
p171
I0
sg39
NsS'complete_sent'
p172
I00
sS'source'
p173
I4
sS'start_sent'
p174
I00
sS'tier'
p175
I0
sS'updating'
p176
I00
sa(dp177
S'send_stats'
p178
I01
sS'fails'
p179
I0
sS'verified'
p180
I00
sg35
NsS'url'
p181
S'udp://tracker.leechers-paradise.org:6969/announce'
p182
sS'fail_limit'
p183
I0
sg39
NsS'complete_sent'
p184
I00
sS'source'
p185
I4
sS'start_sent'
p186
I00
sS'tier'
p187
I0
sS'updating'
p188
I00
sa(dp189
S'send_stats'
p190
I01
sS'fails'
p191
I0
sS'verified'
p192
I00
sg35
NsS'url'
p193
S'udp://coppersurfer.tk:6969/announce'
p194
sS'fail_limit'
p195
I0
sg39
NsS'complete_sent'
p196
I00
sS'source'
p197
I4
sS'start_sent'
p198
I00
sS'tier'
p199
I0
sS'updating'
p200
I00
sasS'magnet'
p201
S'magnet:?xt=urn:btih:4E43703F7CB99CF6B7F3B0750A538FA3048F24F1&dn=Rush+Hour+2+%282001%29+1080p+BrRip+x264+-+YIFY&tr=udp%3A%2F%2Ftracker.yify-torrents.com%2Fannounce&tr=udp%3A%2F%2Fopen.demonii.com%3A1337&tr=udp%3A%2F%2Fexodus.desync.com%3A6969&tr=udp%3A%2F%2Ftracker.istole.it%3A80&tr=udp%3A%2F%2Ftracker.publicbt.com%3A80&tr=udp%3A%2F%2Ftracker.openbittorrent.com%3A80&tr=udp%3A%2F%2Ftracker.leechers-paradise.org%3A6969&tr=udp%3A%2F%2F9.rarbg.com%3A2710&tr=udp%3A%2F%2Fp4p.arenabg.ch%3A1337&tr=udp%3A%2F%2Fp4p.arenabg.com%3A1337&tr=udp%3A%2F%2Ftracker.coppersurfer.tk%3A6969&tr=udp%3A%2F%2Ftracker.zer0day.to%3A1337%2Fannounce&tr=udp%3A%2F%2Ftracker.leechers-paradise.org%3A6969%2Fannounce&tr=udp%3A%2F%2Fcoppersurfer.tk%3A6969%2Fannounce'
p202
sS'remove_at_ratio'
p203
I00
sS'stop_ratio'
p204
F2
sS'is_finished'
p205
I01
sbasb.